target datalayout = "e-m:e-p270:32:32-p271:32:32-p272:64:64-i64:64-i128:128-f80:128-n8:16:32:64-S128"
target triple = "x86_64-unknown-linux-gnu"

@_ZTISt12length_error = external constant ptr

; Function Attrs: mustprogress noreturn uwtable
define dso_local void @_ZN4absl13base_internal19ThrowStdLengthErrorEPKc(ptr noundef %what_arg) #0 personality ptr @__gxx_personality_v0 {
entry:
  %what_arg.addr = alloca ptr, align 8
  %exn.slot = alloca ptr, align 8
  %ehselector.slot = alloca i32, align 4
  store ptr %what_arg, ptr %what_arg.addr, align 8
  %exception = call ptr @__cxa_allocate_exception(i64 16) #5
  %0 = load ptr, ptr %what_arg.addr, align 8
  invoke void @_ZNSt12length_errorC1EPKc(ptr noundef nonnull align 8 dereferenceable(16) %exception, ptr noundef %0)
          to label %invoke.cont unwind label %lpad

invoke.cont:                                      ; preds = %entry
  call void @__cxa_throw(ptr %exception, ptr @_ZTISt12length_error, ptr @_ZNSt12length_errorD1Ev) #6
  unreachable

lpad:                                             ; preds = %entry
  %1 = landingpad { ptr, i32 }
          cleanup
  %2 = extractvalue { ptr, i32 } %1, 0
  store ptr %2, ptr %exn.slot, align 8
  %3 = extractvalue { ptr, i32 } %1, 1
  store i32 %3, ptr %ehselector.slot, align 4
  call void @__cxa_free_exception(ptr %exception) #5
  br label %eh.resume

eh.resume:                                        ; preds = %lpad
  %exn = load ptr, ptr %exn.slot, align 8
  %sel = load i32, ptr %ehselector.slot, align 4
  %lpad.val = insertvalue { ptr, i32 } poison, ptr %exn, 0
  %lpad.val1 = insertvalue { ptr, i32 } %lpad.val, i32 %sel, 1
  resume { ptr, i32 } %lpad.val1
}